target datalayout = "e-m:e-p270:32:32-p271:32:32-p272:64:64-i64:64-i128:128-f80:128-n8:16:32:64-S128"
target triple = "x86_64-pc-linux-gnu"

%struct.GCRef = type { i64 }
%struct.jit_State = type { %struct.GCtrace, ptr, ptr, ptr, ptr, ptr, ptr, i32, i32, i32, i8, i8, %struct.IRType1, i8, %struct.FoldState, ptr, i32, i32, i32, i32, i32, i32, i32, [1 x i32], [5 x %union.TValue], [3 x %union.TValue], ptr, i32, i32, i32, i32, ptr, ptr, i32, i32, i8, ptr, i32, i32, i16, [101 x i16], [258 x i32], [15 x i32], [16 x ptr], [64 x %struct.HotPenalty], i32, [16 x %struct.BPropEntry], i32, %struct.ScEvEntry, ptr, i32, i32, i32, ptr, i32, i32, ptr, ptr, ptr, i64, i64, %union.TValue, ptr, i32, i32 }
%struct.GCtrace = type { %struct.GCRef, i8, i8, i16, i32, i32, %struct.GCRef, ptr, i32, i32, ptr, ptr, %struct.GCRef, %struct.MRef, i32, i32, ptr, i32, i16, i16, i16, i16, i16, i16, i16, i8, i8, i8, i8 }
%struct.MRef = type { i64 }
%struct.IRType1 = type { i8 }
%struct.FoldState = type { %union.IRIns, [2 x %union.IRIns], [2 x %union.IRIns] }
%union.IRIns = type { %struct.GCRef }
%struct.HotPenalty = type { %struct.MRef, i16, i16 }
%struct.BPropEntry = type { i16, i16, i32 }
%struct.ScEvEntry = type { %struct.MRef, i16, i16, i16, i16, %struct.IRType1, i8 }
%union.TValue = type { i64 }
%struct.RecordFFData = type { ptr, i64, i32 }

; Function Attrs: nounwind uwtable
define internal void @recff_select(ptr noundef %0, ptr noundef %1) #0 {
  %3 = alloca ptr, align 8
  %4 = alloca ptr, align 8
  %5 = alloca i32, align 4
  %6 = alloca i64, align 8
  %7 = alloca i64, align 8
  %8 = alloca i64, align 8
  %9 = alloca i32, align 4
  store ptr %0, ptr %3, align 8, !tbaa !4
  store ptr %1, ptr %4, align 8, !tbaa !46
  call void @llvm.lifetime.start.p0(i64 4, ptr %5) #9
  %10 = load ptr, ptr %3, align 8, !tbaa !4
  %11 = getelementptr inbounds nuw %struct.jit_State, ptr %10, i32 0, i32 6
  %12 = load ptr, ptr %11, align 8, !tbaa !41
  %13 = getelementptr inbounds i32, ptr %12, i64 0
  %14 = load i32, ptr %13, align 4, !tbaa !9
  store i32 %14, ptr %5, align 4, !tbaa !9
  %15 = load i32, ptr %5, align 4, !tbaa !9
  %16 = icmp ne i32 %15, 0
  br i1 %16, label %17, label %104

17:                                               ; preds = %2
  call void @llvm.lifetime.start.p0(i64 8, ptr %6) #9
  %18 = load ptr, ptr %3, align 8, !tbaa !4
  %19 = load i32, ptr %5, align 4, !tbaa !9
  %20 = load ptr, ptr %4, align 8, !tbaa !46
  %21 = getelementptr inbounds nuw %struct.RecordFFData, ptr %20, i32 0, i32 0
  %22 = load ptr, ptr %21, align 8, !tbaa !40
  %23 = getelementptr inbounds %union.TValue, ptr %22, i64 0
  %24 = call i32 @lj_ffrecord_select_mode(ptr noundef %18, i32 noundef %19, ptr noundef %23)
  %25 = sext i32 %24 to i64
  store i64 %25, ptr %6, align 8, !tbaa !60
  %26 = load i64, ptr %6, align 8, !tbaa !60
  %27 = icmp eq i64 %26, 0
  br i1 %27, label %28, label %39

28:                                               ; preds = %17
  %29 = load ptr, ptr %3, align 8, !tbaa !4
  %30 = load ptr, ptr %3, align 8, !tbaa !4
  %31 = getelementptr inbounds nuw %struct.jit_State, ptr %30, i32 0, i32 8
  %32 = load i32, ptr %31, align 4, !tbaa !42
  %33 = sub i32 %32, 1
  %34 = call i32 @lj_ir_kint(ptr noundef %29, i32 noundef %33)
  %35 = load ptr, ptr %3, align 8, !tbaa !4
  %36 = getelementptr inbounds nuw %struct.jit_State, ptr %35, i32 0, i32 6
  %37 = load ptr, ptr %36, align 8, !tbaa !41
  %38 = getelementptr inbounds i32, ptr %37, i64 0
  store i32 %34, ptr %38, align 4, !tbaa !9
  br label %100

39:                                               ; preds = %17
  %40 = load i32, ptr %5, align 4, !tbaa !9
  %41 = trunc i32 %40 to i16
  %42 = zext i16 %41 to i32
  %43 = icmp slt i32 %42, 32768
  br i1 %43, label %44, label %96

44:                                               ; preds = %39
  call void @llvm.lifetime.start.p0(i64 8, ptr %7) #9
  %45 = load ptr, ptr %3, align 8, !tbaa !4
  %46 = getelementptr inbounds nuw %struct.jit_State, ptr %45, i32 0, i32 8
  %47 = load i32, ptr %46, align 4, !tbaa !42
  %48 = zext i32 %47 to i64
  store i64 %48, ptr %7, align 8, !tbaa !60
  %49 = load i64, ptr %6, align 8, !tbaa !60
  %50 = icmp slt i64 %49, 0
  br i1 %50, label %51, label %55

51:                                               ; preds = %44
  %52 = load i64, ptr %7, align 8, !tbaa !60
  %53 = load i64, ptr %6, align 8, !tbaa !60
  %54 = add nsw i64 %53, %52
  store i64 %54, ptr %6, align 8, !tbaa !60
  br label %62

55:                                               ; preds = %44
  %56 = load i64, ptr %6, align 8, !tbaa !60
  %57 = load i64, ptr %7, align 8, !tbaa !60
  %58 = icmp sgt i64 %56, %57
  br i1 %58, label %59, label %61

59:                                               ; preds = %55
  %60 = load i64, ptr %7, align 8, !tbaa !60
  store i64 %60, ptr %6, align 8, !tbaa !60
  br label %61

61:                                               ; preds = %59, %55
  br label %62

62:                                               ; preds = %61, %51
  %63 = load i64, ptr %6, align 8, !tbaa !60
  %64 = icmp sge i64 %63, 1
  br i1 %64, label %65, label %95

65:                                               ; preds = %62
  call void @llvm.lifetime.start.p0(i64 8, ptr %8) #9
  %66 = load i64, ptr %7, align 8, !tbaa !60
  %67 = load i64, ptr %6, align 8, !tbaa !60
  %68 = sub nsw i64 %66, %67
  %69 = load ptr, ptr %4, align 8, !tbaa !46
  %70 = getelementptr inbounds nuw %struct.RecordFFData, ptr %69, i32 0, i32 1
  store i64 %68, ptr %70, align 8, !tbaa !36
  store i64 0, ptr %8, align 8, !tbaa !60
  br label %71

71:                                               ; preds = %91, %65
  %72 = load i64, ptr %8, align 8, !tbaa !60
  %73 = load i64, ptr %7, align 8, !tbaa !60
  %74 = load i64, ptr %6, align 8, !tbaa !60
  %75 = sub nsw i64 %73, %74
  %76 = icmp slt i64 %72, %75
  br i1 %76, label %77, label %94

77:                                               ; preds = %71
  %78 = load ptr, ptr %3, align 8, !tbaa !4
  %79 = getelementptr inbounds nuw %struct.jit_State, ptr %78, i32 0, i32 6
  %80 = load ptr, ptr %79, align 8, !tbaa !41
  %81 = load i64, ptr %6, align 8, !tbaa !60
  %82 = load i64, ptr %8, align 8, !tbaa !60
  %83 = add nsw i64 %81, %82
  %84 = getelementptr inbounds i32, ptr %80, i64 %83
  %85 = load i32, ptr %84, align 4, !tbaa !9
  %86 = load ptr, ptr %3, align 8, !tbaa !4
  %87 = getelementptr inbounds nuw %struct.jit_State, ptr %86, i32 0, i32 6
  %88 = load ptr, ptr %87, align 8, !tbaa !41
  %89 = load i64, ptr %8, align 8, !tbaa !60
  %90 = getelementptr inbounds i32, ptr %88, i64 %89
  store i32 %85, ptr %90, align 4, !tbaa !9
  br label %91

91:                                               ; preds = %77
  %92 = load i64, ptr %8, align 8, !tbaa !60
  %93 = add nsw i64 %92, 1
  store i64 %93, ptr %8, align 8, !tbaa !60
  br label %71, !llvm.loop !61

94:                                               ; preds = %71
  call void @llvm.lifetime.end.p0(i64 8, ptr %8) #9
  br label %95

95:                                               ; preds = %94, %62
  call void @llvm.lifetime.end.p0(i64 8, ptr %7) #9
  br label %99

96:                                               ; preds = %39
  %97 = load ptr, ptr %3, align 8, !tbaa !4
  %98 = load ptr, ptr %4, align 8, !tbaa !46
  call void @recff_nyi(ptr noundef %97, ptr noundef %98)
  store i32 1, ptr %9, align 4
  br label %101

99:                                               ; preds = %95
  br label %100

100:                                              ; preds = %99, %28
  store i32 0, ptr %9, align 4
  br label %101

101:                                              ; preds = %100, %96
  call void @llvm.lifetime.end.p0(i64 8, ptr %6) #9
  %102 = load i32, ptr %9, align 4
  switch i32 %102, label %105 [
    i32 0, label %103
  ]

103:                                              ; preds = %101
  br label %104

104:                                              ; preds = %103, %2
  store i32 0, ptr %9, align 4
  br label %105

105:                                              ; preds = %104, %101
  call void @llvm.lifetime.end.p0(i64 4, ptr %5) #9
  %106 = load i32, ptr %9, align 4
  switch i32 %106, label %108 [
    i32 0, label %107
    i32 1, label %107
  ]

107:                                              ; preds = %105, %105
  ret void

108:                                              ; preds = %105
  unreachable
}