; Function Attrs: nounwind uwtable
define internal void @recff_select(ptr noundef %0, ptr noundef captures(none) %1) #0 {
  %3 = getelementptr inbounds nuw i8, ptr %0, i64 160
  %4 = load ptr, ptr %3, align 8, !tbaa !37
  %5 = load i32, ptr %4, align 4, !tbaa !39
  %.not = icmp eq i32 %5, 0
  br i1 %.not, label %.loopexit, label %6

6:                                                ; preds = %2
  %7 = load ptr, ptr %1, align 8, !tbaa !36
  %8 = tail call i32 @lj_ffrecord_select_mode(ptr noundef nonnull %0, i32 noundef %5, ptr noundef %7)
  %9 = sext i32 %8 to i64
  %10 = icmp eq i32 %8, 0
  br i1 %10, label %11, label %17

11:                                               ; preds = %6
  %12 = getelementptr inbounds nuw i8, ptr %0, i64 172
  %13 = load i32, ptr %12, align 4, !tbaa !38
  %14 = add i32 %13, -1
  %15 = tail call i32 @lj_ir_kint(ptr noundef nonnull %0, i32 noundef %14) #9
  %16 = load ptr, ptr %3, align 8, !tbaa !37
  store i32 %15, ptr %16, align 4, !tbaa !39
  br label %.loopexit

17:                                               ; preds = %6
  %18 = and i32 %5, 32768
  %.not37.not = icmp eq i32 %18, 0
  br i1 %.not37.not, label %19, label %.critedge

19:                                               ; preds = %17
  %20 = getelementptr inbounds nuw i8, ptr %0, i64 172
  %21 = load i32, ptr %20, align 4, !tbaa !38
  %22 = zext i32 %21 to i64
  %23 = icmp slt i32 %8, 0
  %24 = add nsw i64 %22, %9
  %spec.select = tail call i64 @llvm.smin.i64(i64 %9, i64 %22)
  %.033 = select i1 %23, i64 %24, i64 %spec.select
  %25 = icmp sgt i64 %.033, 0
  br i1 %25, label %26, label %.loopexit

26:                                               ; preds = %19
  %27 = sub nsw i64 %22, %.033
  %28 = getelementptr inbounds nuw i8, ptr %1, i64 8
  store i64 %27, ptr %28, align 8, !tbaa !32
  %29 = icmp sgt i64 %27, 0
  br i1 %29, label %.lr.ph, label %.loopexit

.lr.ph:                                           ; preds = %26
  %30 = load ptr, ptr %3, align 8, !tbaa !37
  %31 = getelementptr inbounds nuw i32, ptr %30, i64 %.033
  br label %32

32:                                               ; preds = %.lr.ph, %32
  %.03238 = phi i64 [ 0, %.lr.ph ], [ %36, %32 ]
  %33 = getelementptr inbounds nuw i32, ptr %31, i64 %.03238
  %34 = load i32, ptr %33, align 4, !tbaa !39
  %35 = getelementptr inbounds nuw i32, ptr %30, i64 %.03238
  store i32 %34, ptr %35, align 4, !tbaa !39
  %36 = add nuw nsw i64 %.03238, 1
  %exitcond.not = icmp eq i64 %36, %27
  br i1 %exitcond.not, label %.loopexit, label %32, !llvm.loop !56

.critedge:                                        ; preds = %17
  tail call void @recff_nyi(ptr noundef nonnull %0, ptr noundef nonnull %1)
  br label %.loopexit

.loopexit:                                        ; preds = %32, %26, %2, %11, %19, %.critedge
  ret void
}